; Function Attrs: mustprogress uwtable
define void @_ZN6icu_756number4impl15CurrencySymbolsC2ENS_12CurrencyUnitERKNS_6LocaleER10UErrorCode(ptr noundef nonnull align 8 dereferenceable(232) %this, ptr noundef nonnull %currency, ptr nocapture noundef nonnull readonly align 8 dereferenceable(217) %locale, ptr noundef nonnull align 4 dereferenceable(4) %status) unnamed_addr #1 align 2 personality ptr @__gxx_personality_v0 {
entry:
  %agg.tmp = alloca %"class.icu_75::StringPiece", align 8
  %fCurrency = getelementptr inbounds i8, ptr %this, i64 8
  tail call void @_ZN6icu_7512CurrencyUnitC1ERKS0_(ptr noundef nonnull align 8 dereferenceable(28) %fCurrency, ptr noundef nonnull align 8 dereferenceable(28) %currency)
  %fLocaleName = getelementptr inbounds i8, ptr %this, i64 40
  %fullName.i = getelementptr inbounds i8, ptr %locale, i64 40
  %0 = load ptr, ptr %fullName.i, align 8
  invoke void @_ZN6icu_7511StringPieceC1EPKc(ptr noundef nonnull align 8 dereferenceable(12) %agg.tmp, ptr noundef %0)
          to label %invoke.cont2 unwind label %lpad

invoke.cont2:                                     ; preds = %entry
  %1 = load ptr, ptr %agg.tmp, align 8
  %2 = getelementptr inbounds i8, ptr %agg.tmp, i64 8
  %3 = load i32, ptr %2, align 8
  invoke void @_ZN6icu_7515MaybeStackArrayIcLi40EEC1Ev(ptr noundef nonnull align 8 dereferenceable(53) %fLocaleName)
          to label %.noexc unwind label %lpad

.noexc:                                           ; preds = %invoke.cont2
  %len.i = getelementptr inbounds i8, ptr %this, i64 96
  store i32 0, ptr %len.i, align 8
  %4 = load ptr, ptr %fLocaleName, align 8
  store i8 0, ptr %4, align 1
  %call3.i1.i = invoke noundef nonnull align 8 dereferenceable(60) ptr @_ZN6icu_7510CharString6appendEPKciR10UErrorCode(ptr noundef nonnull align 8 dereferenceable(60) %fLocaleName, ptr noundef %1, i32 noundef %3, ptr noundef nonnull align 4 dereferenceable(4) %status)
          to label %invoke.cont7 unwind label %lpad.i

lpad.i:                                           ; preds = %.noexc
  %5 = landingpad { ptr, i32 }
          cleanup
  call void @_ZN6icu_7515MaybeStackArrayIcLi40EED1Ev(ptr noundef nonnull align 8 dereferenceable(53) %fLocaleName) #11
  br label %ehcleanup14

invoke.cont7:                                     ; preds = %.noexc
  %fCurrencySymbol = getelementptr inbounds i8, ptr %this, i64 104
  store ptr getelementptr inbounds ({ [13 x ptr] }, ptr @_ZTVN6icu_7513UnicodeStringE, i64 0, i32 0, i64 2), ptr %fCurrencySymbol, align 8
  %fUnion2.i = getelementptr inbounds i8, ptr %this, i64 112
  store i16 2, ptr %fUnion2.i, align 8
  %fIntlCurrencySymbol = getelementptr inbounds i8, ptr %this, i64 168
  store ptr getelementptr inbounds ({ [13 x ptr] }, ptr @_ZTVN6icu_7513UnicodeStringE, i64 0, i32 0, i64 2), ptr %fIntlCurrencySymbol, align 8
  %fUnion2.i4 = getelementptr inbounds i8, ptr %this, i64 176
  store i16 2, ptr %fUnion2.i4, align 8
  invoke void @_ZN6icu_7513UnicodeString10setToBogusEv(ptr noundef nonnull align 8 dereferenceable(64) %fCurrencySymbol)
          to label %invoke.cont10 unwind label %lpad9

invoke.cont10:                                    ; preds = %invoke.cont7
  invoke void @_ZN6icu_7513UnicodeString10setToBogusEv(ptr noundef nonnull align 8 dereferenceable(64) %fIntlCurrencySymbol)
          to label %invoke.cont12 unwind label %lpad9

invoke.cont12:                                    ; preds = %invoke.cont10
  ret void

lpad:                                             ; preds = %invoke.cont2, %entry
  %6 = landingpad { ptr, i32 }
          cleanup
  br label %ehcleanup14

lpad9:                                            ; preds = %invoke.cont10, %invoke.cont7
  %7 = landingpad { ptr, i32 }
          cleanup
  call void @_ZN6icu_7513UnicodeStringD1Ev(ptr noundef nonnull align 8 dereferenceable(64) %fIntlCurrencySymbol) #11
  call void @_ZN6icu_7513UnicodeStringD1Ev(ptr noundef nonnull align 8 dereferenceable(64) %fCurrencySymbol) #11
  call void @_ZN6icu_7515MaybeStackArrayIcLi40EED1Ev(ptr noundef nonnull align 8 dereferenceable(53) %fLocaleName) #11
  br label %ehcleanup14

ehcleanup14:                                      ; preds = %lpad, %lpad.i, %lpad9
  %.pn.pn.pn = phi { ptr, i32 } [ %7, %lpad9 ], [ %6, %lpad ], [ %5, %lpad.i ]
  call void @_ZN6icu_7512CurrencyUnitD1Ev(ptr noundef nonnull align 8 dereferenceable(28) %fCurrency) #11
  resume { ptr, i32 } %.pn.pn.pn
}